; ModuleID = 'source-C-CXX/21/991.c'
source_filename = "source-C-CXX/21/991.c"
target datalayout = "e-m:e-p270:32:32-p271:32:32-p272:64:64-i64:64-f80:128-n8:16:32:64-S128"
target triple = "x86_64-pc-linux-gnu"

%struct._IO_FILE = type { i32, i8*, i8*, i8*, i8*, i8*, i8*, i8*, i8*, i8*, i8*, i8*, %struct._IO_marker*, %struct._IO_FILE*, i32, i32, i64, i16, i8, [1 x i8], i8*, i64, %struct._IO_codecvt*, %struct._IO_wide_data*, %struct._IO_FILE*, i8*, i64, i32, [20 x i8] }
%struct._IO_marker = type opaque
%struct._IO_codecvt = type opaque
%struct._IO_wide_data = type opaque

@.str = private unnamed_addr constant [3 x i8] c"%d\00", align 1
@.str.1 = private unnamed_addr constant [3 x i8] c"No\00", align 1
@stdin = external local_unnamed_addr global %struct._IO_FILE*, align 8

; Function Attrs: nofree nounwind sspstrong uwtable
define dso_local i32 @main() local_unnamed_addr #0 {
  %1 = alloca [300 x i32], align 16
  %2 = bitcast [300 x i32]* %1 to i8*
  call void @llvm.lifetime.start.p0i8(i64 1200, i8* nonnull %2) #5
  %3 = getelementptr inbounds [300 x i32], [300 x i32]* %1, i64 0, i64 0
  %4 = call i32 (i8*, ...) @__isoc99_scanf(i8* getelementptr inbounds ([3 x i8], [3 x i8]* @.str, i64 0, i64 0), i32* nonnull %3)
  %5 = load %struct._IO_FILE*, %struct._IO_FILE** @stdin, align 8, !tbaa !5
  %6 = call i32 @getc(%struct._IO_FILE* %5) #5
  %7 = and i32 %6, 255
  %8 = icmp eq i32 %7, 44
  br i1 %8, label %82, label %11

9:                                                ; preds = %82
  %10 = trunc i64 %86 to i32
  br label %11

11:                                               ; preds = %9, %0
  %12 = phi i32 [ 1, %0 ], [ %10, %9 ]
  %13 = call i32 @llvm.umax.i32(i32 %12, i32 1)
  %14 = zext i32 %13 to i64
  %15 = icmp ult i32 %13, 8
  br i1 %15, label %79, label %16

16:                                               ; preds = %11
  %17 = and i64 %14, 4294967288
  %18 = add nsw i64 %17, -8
  %19 = lshr exact i64 %18, 3
  %20 = add nuw nsw i64 %19, 1
  %21 = and i64 %20, 1
  %22 = icmp eq i64 %18, 0
  br i1 %22, label %54, label %23

23:                                               ; preds = %16
  %24 = and i64 %20, 4611686018427387902
  br label %25

25:                                               ; preds = %25, %23
  %26 = phi i64 [ 0, %23 ], [ %51, %25 ]
  %27 = phi <4 x i32> [ zeroinitializer, %23 ], [ %49, %25 ]
  %28 = phi <4 x i32> [ zeroinitializer, %23 ], [ %50, %25 ]
  %29 = phi i64 [ %24, %23 ], [ %52, %25 ]
  %30 = getelementptr inbounds [300 x i32], [300 x i32]* %1, i64 0, i64 %26
  %31 = bitcast i32* %30 to <4 x i32>*
  %32 = load <4 x i32>, <4 x i32>* %31, align 16, !tbaa !9
  %33 = getelementptr inbounds i32, i32* %30, i64 4
  %34 = bitcast i32* %33 to <4 x i32>*
  %35 = load <4 x i32>, <4 x i32>* %34, align 16, !tbaa !9
  %36 = icmp sgt <4 x i32> %32, %27
  %37 = icmp sgt <4 x i32> %35, %28
  %38 = select <4 x i1> %36, <4 x i32> %32, <4 x i32> %27
  %39 = select <4 x i1> %37, <4 x i32> %35, <4 x i32> %28
  %40 = or i64 %26, 8
  %41 = getelementptr inbounds [300 x i32], [300 x i32]* %1, i64 0, i64 %40
  %42 = bitcast i32* %41 to <4 x i32>*
  %43 = load <4 x i32>, <4 x i32>* %42, align 16, !tbaa !9
  %44 = getelementptr inbounds i32, i32* %41, i64 4
  %45 = bitcast i32* %44 to <4 x i32>*
  %46 = load <4 x i32>, <4 x i32>* %45, align 16, !tbaa !9
  %47 = icmp sgt <4 x i32> %43, %38
  %48 = icmp sgt <4 x i32> %46, %39
  %49 = select <4 x i1> %47, <4 x i32> %43, <4 x i32> %38
  %50 = select <4 x i1> %48, <4 x i32> %46, <4 x i32> %39
  %51 = add nuw i64 %26, 16
  %52 = add i64 %29, -2
  %53 = icmp eq i64 %52, 0
  br i1 %53, label %54, label %25, !llvm.loop !11

54:                                               ; preds = %25, %16
  %55 = phi <4 x i32> [ undef, %16 ], [ %49, %25 ]
  %56 = phi <4 x i32> [ undef, %16 ], [ %50, %25 ]
  %57 = phi i64 [ 0, %16 ], [ %51, %25 ]
  %58 = phi <4 x i32> [ zeroinitializer, %16 ], [ %49, %25 ]
  %59 = phi <4 x i32> [ zeroinitializer, %16 ], [ %50, %25 ]
  %60 = icmp eq i64 %21, 0
  br i1 %60, label %72, label %61

61:                                               ; preds = %54
  %62 = getelementptr inbounds [300 x i32], [300 x i32]* %1, i64 0, i64 %57
  %63 = bitcast i32* %62 to <4 x i32>*
  %64 = load <4 x i32>, <4 x i32>* %63, align 16, !tbaa !9
  %65 = getelementptr inbounds i32, i32* %62, i64 4
  %66 = bitcast i32* %65 to <4 x i32>*
  %67 = load <4 x i32>, <4 x i32>* %66, align 16, !tbaa !9
  %68 = icmp sgt <4 x i32> %67, %59
  %69 = select <4 x i1> %68, <4 x i32> %67, <4 x i32> %59
  %70 = icmp sgt <4 x i32> %64, %58
  %71 = select <4 x i1> %70, <4 x i32> %64, <4 x i32> %58
  br label %72

72:                                               ; preds = %54, %61
  %73 = phi <4 x i32> [ %55, %54 ], [ %71, %61 ]
  %74 = phi <4 x i32> [ %56, %54 ], [ %69, %61 ]
  %75 = icmp sgt <4 x i32> %73, %74
  %76 = select <4 x i1> %75, <4 x i32> %73, <4 x i32> %74
  %77 = call i32 @llvm.vector.reduce.smax.v4i32(<4 x i32> %76)
  %78 = icmp eq i64 %17, %14
  br i1 %78, label %91, label %79

79:                                               ; preds = %11, %72
  %80 = phi i64 [ 0, %11 ], [ %17, %72 ]
  %81 = phi i32 [ 0, %11 ], [ %77, %72 ]
  br label %98

82:                                               ; preds = %0, %82
  %83 = phi i64 [ %86, %82 ], [ 1, %0 ]
  %84 = getelementptr inbounds [300 x i32], [300 x i32]* %1, i64 0, i64 %83
  %85 = call i32 (i8*, ...) @__isoc99_scanf(i8* getelementptr inbounds ([3 x i8], [3 x i8]* @.str, i64 0, i64 0), i32* nonnull %84)
  %86 = add nuw i64 %83, 1
  %87 = load %struct._IO_FILE*, %struct._IO_FILE** @stdin, align 8, !tbaa !5
  %88 = call i32 @getc(%struct._IO_FILE* %87) #5
  %89 = and i32 %88, 255
  %90 = icmp eq i32 %89, 44
  br i1 %90, label %82, label %9

91:                                               ; preds = %98, %72
  %92 = phi i32 [ %77, %72 ], [ %104, %98 ]
  %93 = add nsw i64 %14, -1
  %94 = and i64 %14, 3
  %95 = icmp ult i64 %93, 3
  br i1 %95, label %141, label %96

96:                                               ; preds = %91
  %97 = and i64 %14, 4294967292
  br label %107

98:                                               ; preds = %79, %98
  %99 = phi i64 [ %105, %98 ], [ %80, %79 ]
  %100 = phi i32 [ %104, %98 ], [ %81, %79 ]
  %101 = getelementptr inbounds [300 x i32], [300 x i32]* %1, i64 0, i64 %99
  %102 = load i32, i32* %101, align 4, !tbaa !9
  %103 = icmp sgt i32 %102, %100
  %104 = select i1 %103, i32 %102, i32 %100
  %105 = add nuw nsw i64 %99, 1
  %106 = icmp eq i64 %105, %14
  br i1 %106, label %91, label %98, !llvm.loop !14

107:                                              ; preds = %107, %96
  %108 = phi i64 [ 0, %96 ], [ %138, %107 ]
  %109 = phi i32 [ 0, %96 ], [ %137, %107 ]
  %110 = phi i64 [ %97, %96 ], [ %139, %107 ]
  %111 = getelementptr inbounds [300 x i32], [300 x i32]* %1, i64 0, i64 %108
  %112 = load i32, i32* %111, align 16, !tbaa !9
  %113 = icmp sgt i32 %112, %109
  %114 = icmp slt i32 %112, %92
  %115 = select i1 %113, i1 %114, i1 false
  %116 = select i1 %115, i32 %112, i32 %109
  %117 = or i64 %108, 1
  %118 = getelementptr inbounds [300 x i32], [300 x i32]* %1, i64 0, i64 %117
  %119 = load i32, i32* %118, align 4, !tbaa !9
  %120 = icmp sgt i32 %119, %116
  %121 = icmp slt i32 %119, %92
  %122 = select i1 %120, i1 %121, i1 false
  %123 = select i1 %122, i32 %119, i32 %116
  %124 = or i64 %108, 2
  %125 = getelementptr inbounds [300 x i32], [300 x i32]* %1, i64 0, i64 %124
  %126 = load i32, i32* %125, align 8, !tbaa !9
  %127 = icmp sgt i32 %126, %123
  %128 = icmp slt i32 %126, %92
  %129 = select i1 %127, i1 %128, i1 false
  %130 = select i1 %129, i32 %126, i32 %123
  %131 = or i64 %108, 3
  %132 = getelementptr inbounds [300 x i32], [300 x i32]* %1, i64 0, i64 %131
  %133 = load i32, i32* %132, align 4, !tbaa !9
  %134 = icmp sgt i32 %133, %130
  %135 = icmp slt i32 %133, %92
  %136 = select i1 %134, i1 %135, i1 false
  %137 = select i1 %136, i32 %133, i32 %130
  %138 = add nuw nsw i64 %108, 4
  %139 = add i64 %110, -4
  %140 = icmp eq i64 %139, 0
  br i1 %140, label %141, label %107, !llvm.loop !16

141:                                              ; preds = %107, %91
  %142 = phi i32 [ undef, %91 ], [ %137, %107 ]
  %143 = phi i64 [ 0, %91 ], [ %138, %107 ]
  %144 = phi i32 [ 0, %91 ], [ %137, %107 ]
  %145 = icmp eq i64 %94, 0
  br i1 %145, label %159, label %146

146:                                              ; preds = %141, %146
  %147 = phi i64 [ %156, %146 ], [ %143, %141 ]
  %148 = phi i32 [ %155, %146 ], [ %144, %141 ]
  %149 = phi i64 [ %157, %146 ], [ %94, %141 ]
  %150 = getelementptr inbounds [300 x i32], [300 x i32]* %1, i64 0, i64 %147
  %151 = load i32, i32* %150, align 4, !tbaa !9
  %152 = icmp sgt i32 %151, %148
  %153 = icmp slt i32 %151, %92
  %154 = select i1 %152, i1 %153, i1 false
  %155 = select i1 %154, i32 %151, i32 %148
  %156 = add nuw nsw i64 %147, 1
  %157 = add i64 %149, -1
  %158 = icmp eq i64 %157, 0
  br i1 %158, label %159, label %146, !llvm.loop !17

159:                                              ; preds = %146, %141
  %160 = phi i32 [ %142, %141 ], [ %155, %146 ]
  %161 = icmp eq i32 %160, 0
  br i1 %161, label %164, label %162

162:                                              ; preds = %159
  %163 = call i32 (i8*, ...) @printf(i8* nonnull dereferenceable(1) getelementptr inbounds ([3 x i8], [3 x i8]* @.str, i64 0, i64 0), i32 %160)
  br label %166

164:                                              ; preds = %159
  %165 = call i32 (i8*, ...) @printf(i8* nonnull dereferenceable(1) getelementptr inbounds ([3 x i8], [3 x i8]* @.str.1, i64 0, i64 0))
  br label %166

166:                                              ; preds = %164, %162
  call void @llvm.lifetime.end.p0i8(i64 1200, i8* nonnull %2) #5
  ret i32 0
}

; Function Attrs: argmemonly mustprogress nofree nosync nounwind willreturn
declare void @llvm.lifetime.start.p0i8(i64 immarg, i8* nocapture) #1

; Function Attrs: nofree nounwind
declare noundef i32 @__isoc99_scanf(i8* nocapture noundef readonly, ...) local_unnamed_addr #2

; Function Attrs: nofree nounwind
declare noundef i32 @printf(i8* nocapture noundef readonly, ...) local_unnamed_addr #2

; Function Attrs: argmemonly mustprogress nofree nosync nounwind willreturn
declare void @llvm.lifetime.end.p0i8(i64 immarg, i8* nocapture) #1

; Function Attrs: nofree nounwind
declare noundef i32 @getc(%struct._IO_FILE* nocapture noundef) local_unnamed_addr #2

; Function Attrs: nofree nosync nounwind readnone speculatable willreturn
declare i32 @llvm.umax.i32(i32, i32) #3

; Function Attrs: nofree nosync nounwind readnone willreturn
declare i32 @llvm.vector.reduce.smax.v4i32(<4 x i32>) #4


!llvm.module.flags = !{!0, !1, !2, !3}
!llvm.ident = !{!4}

!0 = !{i32 1, !"wchar_size", i32 4}
!1 = !{i32 7, !"PIC Level", i32 2}
!2 = !{i32 7, !"PIE Level", i32 2}
!3 = !{i32 7, !"uwtable", i32 1}
!4 = !{!"clang version 13.0.0"}
!5 = !{!6, !6, i64 0}
!6 = !{!"any pointer", !7, i64 0}
!7 = !{!"omnipotent char", !8, i64 0}
!8 = !{!"Simple C/C++ TBAA"}
!9 = !{!10, !10, i64 0}
!10 = !{!"int", !7, i64 0}
!11 = distinct !{!11, !12, !13}
!12 = !{!"llvm.loop.mustprogress"}
!13 = !{!"llvm.loop.isvectorized", i32 1}
!14 = distinct !{!14, !12, !15, !13}
!15 = !{!"llvm.loop.unroll.runtime.disable"}
!16 = distinct !{!16, !12}
!17 = distinct !{!17, !18}
!18 = !{!"llvm.loop.unroll.disable"}
